; Function Attrs: mustprogress uwtable
define internal void @_ZN4absl22internal_any_invocable12LocalInvokerILb0EvRZN12_GLOBAL__N_123gtest_suite_WaiterTest_17WaitDurationWokenINS_24synchronization_internal13PthreadWaiterEE8TestBodyEvEUlvE_JEEET0_PNS0_15TypeErasedStateEDpNS0_18ForwardedParameterIT2_E4typeE(ptr nocapture noundef readonly %state) #3 {
entry:
  %0 = load ptr, ptr %state, align 8
  tail call void @_ZN4absl24synchronization_internal13PthreadWaiter4PokeEv(ptr noundef nonnull align 8 dereferenceable(96) %0)
  tail call void @AbslInternalSleepFor(i64 0, i32 2000000000)
  %1 = load ptr, ptr %state, align 8
  tail call void @_ZN4absl24synchronization_internal13PthreadWaiter4PostEv(ptr noundef nonnull align 8 dereferenceable(96) %1)
  ret void
}